(dp0
S'users'
p1
(dp2
S'ajay'
p3
(dp4
S'sups'
p5
(lp6
sS'user_id'
p7
g3
sS'friends_list'
p8
(lp9
Vvdon
p10
aVasdf
p11
aVvedant
p12
aVsohil
p13
asS'full_name'
p14
S'ajayveer randhawa'
p15
ssS'ytumulur'
p16
(dp17
S'sups'
p18
(lp19
sS'user_id'
p20
g16
sS'friends_list'
p21
(lp22
Vvdon
p23
aVajay
p24
aVasdf
p25
aVved21
p26
aVveda
p27
asS'full_name'
p28
S'YASH'
p29
ssS'asd'
p30
(dp31
S'sups'
p32
(lp33
sS'user_id'
p34
g30
sS'friends_list'
p35
(lp36
sS'full_name'
p37
S'asd'
p38
ssS'sohil'
p39
(dp40
S'sups'
p41
(lp42
sS'user_id'
p43
g39
sS'full_name'
p44
S'sohil bhambri'
p45
sS'friends_list'
p46
(lp47
Vajay
p48
aVvdon
p49
assS'vdon '
p50
(dp51
S'sups'
p52
(lp53
sS'user_id'
p54
g50
sS'friends_list'
p55
(lp56
sS'full_name'
p57
S'vedant'
p58
ssS'hello'
p59
(dp60
S'sups'
p61
(lp62
sS'user_id'
p63
g59
sS'friends_list'
p64
(lp65
sS'full_name'
p66
S'hello '
p67
ssS'123'
p68
(dp69
S'sups'
p70
(lp71
sS'user_id'
p72
g68
sS'friends_list'
p73
(lp74
sS'full_name'
p75
S'123'
p76
ssS'asdaf'
p77
(dp78
S'sups'
p79
(lp80
sS'user_id'
p81
g77
sS'friends_list'
p82
(lp83
Vvedant
p84
asS'full_name'
p85
S'asdf'
p86
ssS'veda'
p87
(dp88
S'sups'
p89
(lp90
sS'user_id'
p91
g87
sS'full_name'
p92
S'asdf'
p93
sS'friends_list'
p94
(lp95
ssS'ved21'
p96
(dp97
S'sups'
p98
(lp99
sS'user_id'
p100
g96
sS'full_name'
p101
S'vedant asdf'
p102
sS'friends_list'
p103
(lp104
Vajay
p105
aVvedant
p106
assS'vedant'
p107
(dp108
S'sups'
p109
(lp110
(dp111
S'date'
p112
VMarch 30, 2015 3:05 PM
p113
sS'sup_id'
p114
Vcb69fb92-246c-4082-abc9-2518ff1a1f5f
p115
sS'sender_id'
p116
S'vedant'
p117
sa(dp118
S'date'
p119
VMarch 30, 2015 3:05 PM
p120
sS'sup_id'
p121
V622b2c43-45f4-4132-bc5d-7a9a7d4955ea
p122
sS'sender_id'
p123
S'vedant'
p124
sasS'user_id'
p125
g107
sS'friends_list'
p126
(lp127
Vhello
p128
aVhi
p129
aVhey
p130
aVyo
p131
aVvedant
p132
aVfuck
p133
aVasdf
p134
asS'full_name'
p135
S'khattar'
p136
ssS'vdon'
p137
(dp138
S'sups'
p139
(lp140
sS'user_id'
p141
g137
sS'full_name'
p142
S'vedant khattar'
p143
sS'friends_list'
p144
(lp145
Vvdon
p146
assS'asdf'
p147
(dp148
S'sups'
p149
(lp150
sS'user_id'
p151
g147
sS'friends_list'
p152
(lp153
Vajay
p154
aVvedant
p155
asS'full_name'
p156
S'asdf'
p157
sss.